target datalayout = "e-m:e-p270:32:32-p271:32:32-p272:64:64-i64:64-i128:128-f80:128-n8:16:32:64-S128"
target triple = "x86_64-pc-linux-gnu"

%struct.TS_resp_ctx = type { ptr, ptr, ptr, ptr, ptr, ptr, ptr, ptr, ptr, ptr, ptr, i32, i32, ptr, ptr, ptr, ptr, ptr, ptr, ptr, ptr, ptr, ptr, ptr }
%struct.OSSL_TIME = type { i64 }
%struct.timeval = type { i64, i64 }
%struct.TS_status_info_st = type { ptr, ptr, ptr }
%struct.TS_resp_st = type { ptr, ptr, ptr }

@.str = private unnamed_addr constant [35 x i8] c"../openssl/crypto/ts/ts_rsp_sign.c\00", align 1
@__func__.TS_RESP_CTX_add_failure_info = private unnamed_addr constant [29 x i8] c"TS_RESP_CTX_add_failure_info\00", align 1
@__func__.def_time_cb = private unnamed_addr constant [12 x i8] c"def_time_cb\00", align 1
@.str.4 = private unnamed_addr constant [23 x i8] c"Time is not available.\00", align 1

; Function Attrs: inlinehint nounwind uwtable
define internal i64 @ossl_ticks2time(i64 noundef %0) #3 {
  %2 = alloca %struct.OSSL_TIME, align 8
  %3 = alloca i64, align 8
  store i64 %0, ptr %3, align 8, !tbaa !35
  %4 = load i64, ptr %3, align 8, !tbaa !35
  %5 = getelementptr inbounds nuw %struct.OSSL_TIME, ptr %2, i32 0, i32 0
  store i64 %4, ptr %5, align 8, !tbaa !131
  %6 = getelementptr inbounds nuw %struct.OSSL_TIME, ptr %2, i32 0, i32 0
  %7 = load i64, ptr %6, align 8
  ret i64 %7
}

; Function Attrs: inlinehint nounwind uwtable
define internal i64 @ossl_time_infinite() #3 {
  %1 = alloca %struct.OSSL_TIME, align 8
  %2 = call i64 @ossl_ticks2time(i64 noundef -1)
  %3 = getelementptr inbounds nuw %struct.OSSL_TIME, ptr %1, i32 0, i32 0
  store i64 %2, ptr %3, align 8
  %4 = getelementptr inbounds nuw %struct.OSSL_TIME, ptr %1, i32 0, i32 0
  %5 = load i64, ptr %4, align 8
  ret i64 %5
}

; Function Attrs: inlinehint nounwind uwtable
define internal i64 @safe_add_time(i64 noundef %0, i64 noundef %1, ptr noundef %2) #3 {
  %4 = alloca i64, align 8
  %5 = alloca i64, align 8
  %6 = alloca i64, align 8
  %7 = alloca ptr, align 8
  %8 = alloca i64, align 8
  %9 = alloca i32, align 4
  store i64 %0, ptr %5, align 8, !tbaa !35
  store i64 %1, ptr %6, align 8, !tbaa !35
  store ptr %2, ptr %7, align 8, !tbaa !133
  call void @llvm.lifetime.start.p0(i64 8, ptr %8) #7
  %10 = load i64, ptr %5, align 8, !tbaa !35
  %11 = load i64, ptr %6, align 8, !tbaa !35
  %12 = call { i64, i1 } @llvm.uadd.with.overflow.i64(i64 %10, i64 %11)
  %13 = extractvalue { i64, i1 } %12, 1
  %14 = extractvalue { i64, i1 } %12, 0
  store i64 %14, ptr %8, align 8
  br i1 %13, label %17, label %15

15:                                               ; preds = %3
  %16 = load i64, ptr %8, align 8, !tbaa !35
  store i64 %16, ptr %4, align 8
  store i32 1, ptr %9, align 4
  br label %24

17:                                               ; preds = %3
  %18 = load ptr, ptr %7, align 8, !tbaa !133
  %19 = load i32, ptr %18, align 4, !tbaa !60
  %20 = or i32 %19, 1
  store i32 %20, ptr %18, align 4, !tbaa !60
  %21 = load i64, ptr %5, align 8, !tbaa !35
  %22 = load i64, ptr %6, align 8, !tbaa !35
  %23 = add i64 %21, %22
  store i64 %23, ptr %4, align 8
  store i32 1, ptr %9, align 4
  br label %24

24:                                               ; preds = %17, %15
  call void @llvm.lifetime.end.p0(i64 8, ptr %8) #7
  %25 = load i64, ptr %4, align 8
  ret i64 %25
}

; Function Attrs: inlinehint nounwind uwtable
define internal i32 @ossl_time_compare(i64 %0, i64 %1) #3 {
  %3 = alloca i32, align 4
  %4 = alloca %struct.OSSL_TIME, align 8
  %5 = alloca %struct.OSSL_TIME, align 8
  %6 = getelementptr inbounds nuw %struct.OSSL_TIME, ptr %4, i32 0, i32 0
  store i64 %0, ptr %6, align 8
  %7 = getelementptr inbounds nuw %struct.OSSL_TIME, ptr %5, i32 0, i32 0
  store i64 %1, ptr %7, align 8
  %8 = getelementptr inbounds nuw %struct.OSSL_TIME, ptr %4, i32 0, i32 0
  %9 = load i64, ptr %8, align 8, !tbaa !131
  %10 = getelementptr inbounds nuw %struct.OSSL_TIME, ptr %5, i32 0, i32 0
  %11 = load i64, ptr %10, align 8, !tbaa !131
  %12 = icmp ugt i64 %9, %11
  br i1 %12, label %13, label %14

13:                                               ; preds = %2
  store i32 1, ptr %3, align 4
  br label %22

14:                                               ; preds = %2
  %15 = getelementptr inbounds nuw %struct.OSSL_TIME, ptr %4, i32 0, i32 0
  %16 = load i64, ptr %15, align 8, !tbaa !131
  %17 = getelementptr inbounds nuw %struct.OSSL_TIME, ptr %5, i32 0, i32 0
  %18 = load i64, ptr %17, align 8, !tbaa !131
  %19 = icmp ult i64 %16, %18
  br i1 %19, label %20, label %21

20:                                               ; preds = %14
  store i32 -1, ptr %3, align 4
  br label %22

21:                                               ; preds = %14
  store i32 0, ptr %3, align 4
  br label %22

22:                                               ; preds = %21, %20, %13
  %23 = load i32, ptr %3, align 4
  ret i32 %23
}

; Function Attrs: inlinehint nounwind uwtable
define internal i64 @ossl_time_zero() #3 {
  %1 = alloca %struct.OSSL_TIME, align 8
  %2 = call i64 @ossl_ticks2time(i64 noundef 0)
  %3 = getelementptr inbounds nuw %struct.OSSL_TIME, ptr %1, i32 0, i32 0
  store i64 %2, ptr %3, align 8
  %4 = getelementptr inbounds nuw %struct.OSSL_TIME, ptr %1, i32 0, i32 0
  %5 = load i64, ptr %4, align 8
  ret i64 %5
}

; Function Attrs: inlinehint nounwind uwtable
define internal { i64, i64 } @ossl_time_to_timeval(i64 %0) #3 {
  %2 = alloca %struct.timeval, align 8
  %3 = alloca %struct.OSSL_TIME, align 8
  %4 = alloca i32, align 4
  %5 = alloca %struct.OSSL_TIME, align 8
  %6 = getelementptr inbounds nuw %struct.OSSL_TIME, ptr %3, i32 0, i32 0
  store i64 %0, ptr %6, align 8
  call void @llvm.lifetime.start.p0(i64 4, ptr %4) #7
  store i32 0, ptr %4, align 4, !tbaa !60
  %7 = getelementptr inbounds nuw %struct.OSSL_TIME, ptr %3, i32 0, i32 0
  %8 = load i64, ptr %7, align 8, !tbaa !131
  %9 = call i64 @safe_add_time(i64 noundef %8, i64 noundef 999, ptr noundef %4)
  %10 = getelementptr inbounds nuw %struct.OSSL_TIME, ptr %3, i32 0, i32 0
  store i64 %9, ptr %10, align 8, !tbaa !131
  %11 = load i32, ptr %4, align 4, !tbaa !60
  %12 = icmp ne i32 %11, 0
  br i1 %12, label %13, label %16

13:                                               ; preds = %1
  call void @llvm.lifetime.start.p0(i64 8, ptr %5) #7
  %14 = call i64 @ossl_time_infinite()
  %15 = getelementptr inbounds nuw %struct.OSSL_TIME, ptr %5, i32 0, i32 0
  store i64 %14, ptr %15, align 8
  call void @llvm.memcpy.p0.p0.i64(ptr align 8 %3, ptr align 8 %5, i64 8, i1 false), !tbaa.struct !34
  call void @llvm.lifetime.end.p0(i64 8, ptr %5) #7
  br label %16

16:                                               ; preds = %13, %1
  %17 = getelementptr inbounds nuw %struct.OSSL_TIME, ptr %3, i32 0, i32 0
  %18 = load i64, ptr %17, align 8, !tbaa !131
  %19 = udiv i64 %18, 1000000000
  %20 = getelementptr inbounds nuw %struct.timeval, ptr %2, i32 0, i32 0
  store i64 %19, ptr %20, align 8, !tbaa !38
  %21 = getelementptr inbounds nuw %struct.OSSL_TIME, ptr %3, i32 0, i32 0
  %22 = load i64, ptr %21, align 8, !tbaa !131
  %23 = urem i64 %22, 1000000000
  %24 = udiv i64 %23, 1000
  %25 = getelementptr inbounds nuw %struct.timeval, ptr %2, i32 0, i32 1
  store i64 %24, ptr %25, align 8, !tbaa !40
  call void @llvm.lifetime.end.p0(i64 4, ptr %4) #7
  %26 = load { i64, i64 }, ptr %2, align 8
  ret { i64, i64 } %26
}

; Function Attrs: nounwind uwtable
define i32 @TS_RESP_CTX_add_failure_info(ptr noundef %0, i32 noundef %1) #0 {
  %3 = alloca i32, align 4
  %4 = alloca ptr, align 8
  %5 = alloca i32, align 4
  %6 = alloca ptr, align 8
  %7 = alloca i32, align 4
  store ptr %0, ptr %4, align 8, !tbaa !10
  store i32 %1, ptr %5, align 4, !tbaa !60
  call void @llvm.lifetime.start.p0(i64 8, ptr %6) #7
  %8 = load ptr, ptr %4, align 8, !tbaa !10
  %9 = getelementptr inbounds nuw %struct.TS_resp_ctx, ptr %8, i32 0, i32 20
  %10 = load ptr, ptr %9, align 8, !tbaa !71
  %11 = getelementptr inbounds nuw %struct.TS_resp_st, ptr %10, i32 0, i32 0
  %12 = load ptr, ptr %11, align 8, !tbaa !73
  store ptr %12, ptr %6, align 8, !tbaa !65
  %13 = load ptr, ptr %6, align 8, !tbaa !65
  %14 = getelementptr inbounds nuw %struct.TS_status_info_st, ptr %13, i32 0, i32 2
  %15 = load ptr, ptr %14, align 8, !tbaa !76
  %16 = icmp eq ptr %15, null
  br i1 %16, label %17, label %23

17:                                               ; preds = %2
  %18 = call ptr @ASN1_BIT_STRING_new()
  %19 = load ptr, ptr %6, align 8, !tbaa !65
  %20 = getelementptr inbounds nuw %struct.TS_status_info_st, ptr %19, i32 0, i32 2
  store ptr %18, ptr %20, align 8, !tbaa !76
  %21 = icmp eq ptr %18, null
  br i1 %21, label %22, label %23

22:                                               ; preds = %17
  br label %32

23:                                               ; preds = %17, %2
  %24 = load ptr, ptr %6, align 8, !tbaa !65
  %25 = getelementptr inbounds nuw %struct.TS_status_info_st, ptr %24, i32 0, i32 2
  %26 = load ptr, ptr %25, align 8, !tbaa !76
  %27 = load i32, ptr %5, align 4, !tbaa !60
  %28 = call i32 @ASN1_BIT_STRING_set_bit(ptr noundef %26, i32 noundef %27, i32 noundef 1)
  %29 = icmp ne i32 %28, 0
  br i1 %29, label %31, label %30

30:                                               ; preds = %23
  br label %32

31:                                               ; preds = %23
  store i32 1, ptr %3, align 4
  store i32 1, ptr %7, align 4
  br label %33

32:                                               ; preds = %30, %22
  call void @ERR_new()
  call void @ERR_set_debug(ptr noundef @.str, i32 noundef 345, ptr noundef @__func__.TS_RESP_CTX_add_failure_info)
  call void (i32, i32, ptr, ...) @ERR_set_error(i32 noundef 47, i32 noundef 524301, ptr noundef null)
  store i32 0, ptr %3, align 4
  store i32 1, ptr %7, align 4
  br label %33

33:                                               ; preds = %32, %31
  call void @llvm.lifetime.end.p0(i64 8, ptr %6) #7
  %34 = load i32, ptr %3, align 4
  ret i32 %34
}

; Function Attrs: inlinehint nounwind uwtable
define internal i32 @ossl_time_is_zero(i64 %0) #3 {
  %2 = alloca %struct.OSSL_TIME, align 8
  %3 = alloca %struct.OSSL_TIME, align 8
  %4 = getelementptr inbounds nuw %struct.OSSL_TIME, ptr %2, i32 0, i32 0
  store i64 %0, ptr %4, align 8
  %5 = call i64 @ossl_time_zero()
  %6 = getelementptr inbounds nuw %struct.OSSL_TIME, ptr %3, i32 0, i32 0
  store i64 %5, ptr %6, align 8
  %7 = getelementptr inbounds nuw %struct.OSSL_TIME, ptr %2, i32 0, i32 0
  %8 = load i64, ptr %7, align 8
  %9 = getelementptr inbounds nuw %struct.OSSL_TIME, ptr %3, i32 0, i32 0
  %10 = load i64, ptr %9, align 8
  %11 = call i32 @ossl_time_compare(i64 %8, i64 %10)
  %12 = icmp eq i32 %11, 0
  %13 = zext i1 %12 to i32
  ret i32 %13
}

; Function Attrs: nounwind uwtable
define internal i32 @def_time_cb(ptr noundef %0, ptr noundef %1, ptr noundef %2, ptr noundef %3) #0 {
  %5 = alloca i32, align 4
  %6 = alloca ptr, align 8
  %7 = alloca ptr, align 8
  %8 = alloca ptr, align 8
  %9 = alloca ptr, align 8
  %10 = alloca %struct.OSSL_TIME, align 8
  %11 = alloca %struct.timeval, align 8
  %12 = alloca %struct.OSSL_TIME, align 8
  %13 = alloca i32, align 4
  %14 = alloca %struct.timeval, align 8
  store ptr %0, ptr %6, align 8, !tbaa !10
  store ptr %1, ptr %7, align 8, !tbaa !30
  store ptr %2, ptr %8, align 8, !tbaa !32
  store ptr %3, ptr %9, align 8, !tbaa !32
  call void @llvm.lifetime.start.p0(i64 8, ptr %10) #7
  call void @llvm.lifetime.start.p0(i64 16, ptr %11) #7
  call void @llvm.lifetime.start.p0(i64 8, ptr %12) #7
  %15 = call i64 @ossl_time_now()
  %16 = getelementptr inbounds nuw %struct.OSSL_TIME, ptr %12, i32 0, i32 0
  store i64 %15, ptr %16, align 8
  call void @llvm.memcpy.p0.p0.i64(ptr align 8 %10, ptr align 8 %12, i64 8, i1 false), !tbaa.struct !34
  call void @llvm.lifetime.end.p0(i64 8, ptr %12) #7
  %17 = getelementptr inbounds nuw %struct.OSSL_TIME, ptr %10, i32 0, i32 0
  %18 = load i64, ptr %17, align 8
  %19 = call i32 @ossl_time_is_zero(i64 %18)
  %20 = icmp ne i32 %19, 0
  br i1 %20, label %21, label %26

21:                                               ; preds = %4
  call void @ERR_new()
  call void @ERR_set_debug(ptr noundef @.str, i32 noundef 70, ptr noundef @__func__.def_time_cb)
  call void (i32, i32, ptr, ...) @ERR_set_error(i32 noundef 47, i32 noundef 122, ptr noundef null)
  %22 = load ptr, ptr %6, align 8, !tbaa !10
  %23 = call i32 @TS_RESP_CTX_set_status_info(ptr noundef %22, i32 noundef 2, ptr noundef @.str.4)
  %24 = load ptr, ptr %6, align 8, !tbaa !10
  %25 = call i32 @TS_RESP_CTX_add_failure_info(ptr noundef %24, i32 noundef 14)
  store i32 0, ptr %5, align 4
  store i32 1, ptr %13, align 4
  br label %40

26:                                               ; preds = %4
  call void @llvm.lifetime.start.p0(i64 16, ptr %14) #7
  %27 = getelementptr inbounds nuw %struct.OSSL_TIME, ptr %10, i32 0, i32 0
  %28 = load i64, ptr %27, align 8
  %29 = call { i64, i64 } @ossl_time_to_timeval(i64 %28)
  %30 = getelementptr inbounds nuw { i64, i64 }, ptr %14, i32 0, i32 0
  %31 = extractvalue { i64, i64 } %29, 0
  store i64 %31, ptr %30, align 8
  %32 = getelementptr inbounds nuw { i64, i64 }, ptr %14, i32 0, i32 1
  %33 = extractvalue { i64, i64 } %29, 1
  store i64 %33, ptr %32, align 8
  call void @llvm.memcpy.p0.p0.i64(ptr align 8 %11, ptr align 8 %14, i64 16, i1 false), !tbaa.struct !37
  call void @llvm.lifetime.end.p0(i64 16, ptr %14) #7
  %34 = getelementptr inbounds nuw %struct.timeval, ptr %11, i32 0, i32 0
  %35 = load i64, ptr %34, align 8, !tbaa !38
  %36 = load ptr, ptr %8, align 8, !tbaa !32
  store i64 %35, ptr %36, align 8, !tbaa !35
  %37 = getelementptr inbounds nuw %struct.timeval, ptr %11, i32 0, i32 1
  %38 = load i64, ptr %37, align 8, !tbaa !40
  %39 = load ptr, ptr %9, align 8, !tbaa !32
  store i64 %38, ptr %39, align 8, !tbaa !35
  store i32 1, ptr %5, align 4
  store i32 1, ptr %13, align 4
  br label %40

40:                                               ; preds = %26, %21
  call void @llvm.lifetime.end.p0(i64 16, ptr %11) #7
  call void @llvm.lifetime.end.p0(i64 8, ptr %10) #7
  %41 = load i32, ptr %5, align 4
  ret i32 %41
}