; Function Attrs: nounwind uwtable
define internal range(i32 0, 2) i32 @def_time_cb(ptr noundef readonly captures(none) %0, ptr readnone captures(none) %1, ptr noundef writeonly captures(none) %2, ptr noundef writeonly captures(none) %3) #0 {
  %5 = tail call i64 @ossl_time_now() #9
  %.not = icmp eq i64 %5, 0
  br i1 %.not, label %6, label %21

6:                                                ; preds = %4
  tail call void @ERR_new() #9
  tail call void @ERR_set_debug(ptr noundef nonnull @.str, i32 noundef 70, ptr noundef nonnull @__func__.def_time_cb) #9
  tail call void (i32, i32, ptr, ...) @ERR_set_error(i32 noundef 47, i32 noundef 122, ptr noundef null) #9
  %7 = tail call i32 @TS_RESP_CTX_set_status_info(ptr noundef %0, i32 noundef 2, ptr noundef nonnull @.str.4)
  %8 = getelementptr inbounds nuw i8, ptr %0, i64 152
  %9 = load ptr, ptr %8, align 8, !tbaa !26
  %10 = load ptr, ptr %9, align 8, !tbaa !27
  %11 = getelementptr inbounds nuw i8, ptr %10, i64 16
  %12 = load ptr, ptr %11, align 8, !tbaa !31
  %13 = icmp eq ptr %12, null
  br i1 %13, label %14, label %17

14:                                               ; preds = %6
  %15 = tail call ptr @ASN1_BIT_STRING_new() #9
  store ptr %15, ptr %11, align 8, !tbaa !31
  %16 = icmp eq ptr %15, null
  br i1 %16, label %20, label %17

17:                                               ; preds = %14, %6
  %18 = phi ptr [ %15, %14 ], [ %12, %6 ]
  %19 = tail call i32 @ASN1_BIT_STRING_set_bit(ptr noundef nonnull %18, i32 noundef 14, i32 noundef 1) #9
  %.not.i = icmp eq i32 %19, 0
  br i1 %.not.i, label %20, label %TS_RESP_CTX_add_failure_info.exit

20:                                               ; preds = %17, %14
  tail call void @ERR_new() #9
  tail call void @ERR_set_debug(ptr noundef nonnull @.str, i32 noundef 345, ptr noundef nonnull @__func__.TS_RESP_CTX_add_failure_info) #9
  tail call void (i32, i32, ptr, ...) @ERR_set_error(i32 noundef 47, i32 noundef 524301, ptr noundef null) #9
  br label %TS_RESP_CTX_add_failure_info.exit

21:                                               ; preds = %4
  %.sroa.01.0.i = tail call i64 @llvm.uadd.sat.i64(i64 %5, i64 999)
  %22 = udiv i64 %.sroa.01.0.i, 1000000000
  %23 = urem i64 %.sroa.01.0.i, 1000000000
  %.lhs.trunc.i = trunc nuw nsw i64 %23 to i32
  %24 = udiv i32 %.lhs.trunc.i, 1000
  %.zext.i = zext nneg i32 %24 to i64
  store i64 %22, ptr %2, align 8, !tbaa !34
  store i64 %.zext.i, ptr %3, align 8, !tbaa !34
  br label %TS_RESP_CTX_add_failure_info.exit

TS_RESP_CTX_add_failure_info.exit:                ; preds = %20, %17, %21
  %.0 = phi i32 [ 1, %21 ], [ 0, %17 ], [ 0, %20 ]
  ret i32 %.0
}